target datalayout = "e-m:e-p270:32:32-p271:32:32-p272:64:64-i64:64-i128:128-f80:128-n8:16:32:64-S128"
target triple = "x86_64-pc-linux-gnu"

%struct.PgStat_KindInfo = type { i8, i32, i32, i32, i32, i32, i32, ptr, ptr, ptr, ptr, ptr, ptr, ptr, ptr, ptr, ptr, ptr, ptr }

@.str.2 = private unnamed_addr constant [9 x i8] c"pgstat.c\00", align 1
@pgstat_kind_custom_infos = internal global ptr null, align 8
@.str.6 = private unnamed_addr constant [30 x i8] c"invalid statistics kind: \22%s\22\00", align 1
@__func__.pgstat_get_kind_from_str = private unnamed_addr constant [25 x i8] c"pgstat_get_kind_from_str\00", align 1

; Function Attrs: nounwind uwtable
define dso_local i32 @pgstat_get_kind_from_str(ptr noundef %0) #0 {
  %2 = alloca i32, align 4
  %3 = alloca ptr, align 8
  %4 = alloca i32, align 4
  %5 = alloca i32, align 4
  %6 = alloca i32, align 4
  %7 = alloca i32, align 4
  store ptr %0, ptr %3, align 8
  call void @llvm.lifetime.start.p0(i64 4, ptr %4) #12
  store i32 1, ptr %4, align 4
  br label %8

8:                                                ; preds = %24, %1
  %9 = load i32, ptr %4, align 4
  %10 = icmp ule i32 %9, 12
  br i1 %10, label %12, label %11

11:                                               ; preds = %8
  store i32 2, ptr %5, align 4
  br label %27

12:                                               ; preds = %8
  %13 = load ptr, ptr %3, align 8
  %14 = load i32, ptr %4, align 4
  %15 = zext i32 %14 to i64
  %16 = getelementptr inbounds nuw [13 x %struct.PgStat_KindInfo], ptr @pgstat_kind_builtin_infos, i64 0, i64 %15
  %17 = getelementptr inbounds nuw %struct.PgStat_KindInfo, ptr %16, i32 0, i32 18
  %18 = load ptr, ptr %17, align 8
  %19 = call i32 @pg_strcasecmp(ptr noundef %13, ptr noundef %18)
  %20 = icmp eq i32 %19, 0
  br i1 %20, label %21, label %23

21:                                               ; preds = %12
  %22 = load i32, ptr %4, align 4
  store i32 %22, ptr %2, align 4
  store i32 1, ptr %5, align 4
  br label %27

23:                                               ; preds = %12
  br label %24

24:                                               ; preds = %23
  %25 = load i32, ptr %4, align 4
  %26 = add i32 %25, 1
  store i32 %26, ptr %4, align 4
  br label %8, !llvm.loop !17

27:                                               ; preds = %21, %11
  call void @llvm.lifetime.end.p0(i64 4, ptr %4) #12
  %28 = load i32, ptr %5, align 4
  switch i32 %28, label %83 [
    i32 2, label %29
    i32 1, label %81
  ]

29:                                               ; preds = %27
  %30 = load ptr, ptr @pgstat_kind_custom_infos, align 8
  %31 = icmp ne ptr %30, null
  br i1 %31, label %32, label %69

32:                                               ; preds = %29
  call void @llvm.lifetime.start.p0(i64 4, ptr %6) #12
  store i32 128, ptr %6, align 4
  br label %33

33:                                               ; preds = %63, %32
  %34 = load i32, ptr %6, align 4
  %35 = icmp ule i32 %34, 256
  br i1 %35, label %37, label %36

36:                                               ; preds = %33
  store i32 5, ptr %5, align 4
  br label %66

37:                                               ; preds = %33
  call void @llvm.lifetime.start.p0(i64 4, ptr %7) #12
  %38 = load i32, ptr %6, align 4
  %39 = sub i32 %38, 128
  store i32 %39, ptr %7, align 4
  %40 = load ptr, ptr @pgstat_kind_custom_infos, align 8
  %41 = load i32, ptr %7, align 4
  %42 = zext i32 %41 to i64
  %43 = getelementptr inbounds nuw ptr, ptr %40, i64 %42
  %44 = load ptr, ptr %43, align 8
  %45 = icmp ne ptr %44, null
  br i1 %45, label %46, label %59

46:                                               ; preds = %37
  %47 = load ptr, ptr %3, align 8
  %48 = load ptr, ptr @pgstat_kind_custom_infos, align 8
  %49 = load i32, ptr %7, align 4
  %50 = zext i32 %49 to i64
  %51 = getelementptr inbounds nuw ptr, ptr %48, i64 %50
  %52 = load ptr, ptr %51, align 8
  %53 = getelementptr inbounds nuw %struct.PgStat_KindInfo, ptr %52, i32 0, i32 18
  %54 = load ptr, ptr %53, align 8
  %55 = call i32 @pg_strcasecmp(ptr noundef %47, ptr noundef %54)
  %56 = icmp eq i32 %55, 0
  br i1 %56, label %57, label %59

57:                                               ; preds = %46
  %58 = load i32, ptr %6, align 4
  store i32 %58, ptr %2, align 4
  store i32 1, ptr %5, align 4
  br label %60

59:                                               ; preds = %46, %37
  store i32 0, ptr %5, align 4
  br label %60

60:                                               ; preds = %59, %57
  call void @llvm.lifetime.end.p0(i64 4, ptr %7) #12
  %61 = load i32, ptr %5, align 4
  switch i32 %61, label %66 [
    i32 0, label %62
  ]

62:                                               ; preds = %60
  br label %63

63:                                               ; preds = %62
  %64 = load i32, ptr %6, align 4
  %65 = add i32 %64, 1
  store i32 %65, ptr %6, align 4
  br label %33, !llvm.loop !18

66:                                               ; preds = %60, %36
  call void @llvm.lifetime.end.p0(i64 4, ptr %6) #12
  %67 = load i32, ptr %5, align 4
  switch i32 %67, label %83 [
    i32 5, label %68
    i32 1, label %81
  ]

68:                                               ; preds = %66
  br label %69

69:                                               ; preds = %68, %29
  br label %70

70:                                               ; preds = %69
  br i1 true, label %71, label %73

71:                                               ; preds = %70
  %72 = call zeroext i1 @errstart_cold(i32 noundef 21, ptr noundef null) #13
  br i1 %72, label %75, label %79

73:                                               ; preds = %70
  %74 = call zeroext i1 @errstart(i32 noundef 21, ptr noundef null)
  br i1 %74, label %75, label %79

75:                                               ; preds = %73, %71
  %76 = call i32 @errcode(i32 noundef 50856066)
  %77 = load ptr, ptr %3, align 8
  %78 = call i32 (ptr, ...) @errmsg(ptr noundef @.str.6, ptr noundef %77)
  call void @errfinish(ptr noundef @.str.2, i32 noundef 1444, ptr noundef @__func__.pgstat_get_kind_from_str)
  br label %79

79:                                               ; preds = %75, %73, %71
  unreachable

80:                                               ; No predecessors!
  store i32 0, ptr %2, align 4
  br label %81

81:                                               ; preds = %80, %66, %27
  %82 = load i32, ptr %2, align 4
  ret i32 %82

83:                                               ; preds = %66, %27
  unreachable
}