; Function Attrs: nounwind uwtable
define dso_local range(i32 0, 257) i32 @pgstat_get_kind_from_str(ptr noundef %0) local_unnamed_addr #0 {
  br label %2

2:                                                ; preds = %1, %7
  %indvars.iv = phi i64 [ 1, %1 ], [ %indvars.iv.next, %7 ]
  %3 = getelementptr inbounds nuw [13 x %struct.PgStat_KindInfo], ptr @pgstat_kind_builtin_infos, i64 0, i64 %indvars.iv, i32 18
  %4 = load ptr, ptr %3, align 8
  %5 = tail call i32 @pg_strcasecmp(ptr noundef %0, ptr noundef %4) #17
  %6 = icmp eq i32 %5, 0
  br i1 %6, label %.loopexit, label %7

7:                                                ; preds = %2
  %indvars.iv.next = add nuw nsw i64 %indvars.iv, 1
  %exitcond.not = icmp eq i64 %indvars.iv.next, 13
  br i1 %exitcond.not, label %8, label %2, !llvm.loop !22

8:                                                ; preds = %7
  %9 = load ptr, ptr @pgstat_kind_custom_infos, align 8
  %.not = icmp eq ptr %9, null
  br i1 %.not, label %.thread31, label %.preheader

.preheader:                                       ; preds = %8, %19
  %10 = phi ptr [ %20, %19 ], [ %9, %8 ]
  %indvars.iv45 = phi i64 [ %indvars.iv.next46, %19 ], [ 128, %8 ]
  %11 = getelementptr ptr, ptr %10, i64 %indvars.iv45
  %12 = getelementptr i8, ptr %11, i64 -1024
  %13 = load ptr, ptr %12, align 8
  %.not21 = icmp eq ptr %13, null
  br i1 %.not21, label %19, label %14

14:                                               ; preds = %.preheader
  %15 = getelementptr inbounds nuw i8, ptr %13, i64 120
  %16 = load ptr, ptr %15, align 8
  %17 = tail call i32 @pg_strcasecmp(ptr noundef %0, ptr noundef %16) #17
  %18 = icmp eq i32 %17, 0
  %.pre = load ptr, ptr @pgstat_kind_custom_infos, align 8
  br i1 %18, label %.loopexit, label %19

19:                                               ; preds = %.preheader, %14
  %20 = phi ptr [ %10, %.preheader ], [ %.pre, %14 ]
  %indvars.iv.next46 = add nuw nsw i64 %indvars.iv45, 1
  %exitcond48.not = icmp eq i64 %indvars.iv.next46, 257
  br i1 %exitcond48.not, label %.thread31, label %.preheader, !llvm.loop !23

.thread31:                                        ; preds = %19, %8
  %21 = tail call zeroext i1 @errstart_cold(i32 noundef 21, ptr noundef null) #19
  tail call void @llvm.assume(i1 %21)
  %22 = tail call i32 @errcode(i32 noundef 50856066) #17
  %23 = tail call i32 (ptr, ...) @errmsg(ptr noundef nonnull @.str.6, ptr noundef %0) #17
  tail call void @errfinish(ptr noundef nonnull @.str.2, i32 noundef 1444, ptr noundef nonnull @__func__.pgstat_get_kind_from_str) #17
  unreachable

.loopexit:                                        ; preds = %2, %14
  %.1.in = phi i64 [ %indvars.iv45, %14 ], [ %indvars.iv, %2 ]
  %.1 = trunc i64 %.1.in to i32
  ret i32 %.1
}